target datalayout = "e-m:e-p270:32:32-p271:32:32-p272:64:64-i64:64-i128:128-f80:128-n8:16:32:64-S128"
target triple = "x86_64-pc-linux-gnu"

%"class.casadi::Sparsity" = type { %"class.casadi::SharedObject" }
%"class.casadi::SharedObject" = type { %"class.casadi::GenericShared" }
%"class.casadi::GenericShared" = type { ptr }
%"class.casadi::HorzRepmat" = type { %"class.casadi::MXNode", i64 }
%"class.casadi::MXNode" = type { %"class.casadi::SharedObjectInternal", i64, %"class.std::vector", %"class.casadi::Sparsity" }
%"class.casadi::SharedObjectInternal" = type { %"class.casadi::GenericSharedInternal", i64 }
%"class.casadi::GenericSharedInternal" = type { ptr, ptr }
%"class.std::vector" = type { %"struct.std::_Vector_base" }
%"struct.std::_Vector_base" = type { %"struct.std::_Vector_base<casadi::MX, std::allocator<casadi::MX>>::_Vector_impl" }
%"struct.std::_Vector_base<casadi::MX, std::allocator<casadi::MX>>::_Vector_impl" = type { %"struct.std::_Vector_base<casadi::MX, std::allocator<casadi::MX>>::_Vector_impl_data" }
%"struct.std::_Vector_base<casadi::MX, std::allocator<casadi::MX>>::_Vector_impl_data" = type { ptr, ptr, ptr }
%"class.casadi::MX" = type { %"class.casadi::SharedObject" }

@.str.29 = private unnamed_addr constant [74 x i8] c"vector::_M_range_check: __n (which is %zu) >= this->size() (which is %zu)\00", align 1

; Function Attrs: mustprogress nounwind uwtable
define linkonce_odr hidden noundef ptr @_ZNSt11__copy_moveILb0ELb1ESt26random_access_iterator_tagE8__copy_mIyEEPT_PKS3_S6_S4_(ptr noundef %0, ptr noundef %1, ptr noundef %2) #7 comdat align 2 {
  %4 = alloca ptr, align 8
  %5 = alloca ptr, align 8
  %6 = alloca ptr, align 8
  %7 = alloca i64, align 8
  store ptr %0, ptr %4, align 8, !tbaa !46
  store ptr %1, ptr %5, align 8, !tbaa !46
  store ptr %2, ptr %6, align 8, !tbaa !46
  call void @llvm.lifetime.start.p0(i64 8, ptr %7) #3
  %8 = load ptr, ptr %5, align 8, !tbaa !46
  %9 = load ptr, ptr %4, align 8, !tbaa !46
  %10 = ptrtoint ptr %8 to i64
  %11 = ptrtoint ptr %9 to i64
  %12 = sub i64 %10, %11
  %13 = sdiv exact i64 %12, 8
  store i64 %13, ptr %7, align 8, !tbaa !42
  %14 = load i64, ptr %7, align 8, !tbaa !42
  %15 = icmp ne i64 %14, 0
  br i1 %15, label %16, label %21

16:                                               ; preds = %3
  %17 = load ptr, ptr %6, align 8, !tbaa !46
  %18 = load ptr, ptr %4, align 8, !tbaa !46
  %19 = load i64, ptr %7, align 8, !tbaa !42
  %20 = mul i64 8, %19
  call void @llvm.memmove.p0.p0.i64(ptr align 8 %17, ptr align 8 %18, i64 %20, i1 false)
  br label %21

21:                                               ; preds = %16, %3
  %22 = load ptr, ptr %6, align 8, !tbaa !46
  %23 = load i64, ptr %7, align 8, !tbaa !42
  %24 = getelementptr inbounds i64, ptr %22, i64 %23
  call void @llvm.lifetime.end.p0(i64 8, ptr %7) #3
  ret ptr %24
}

; Function Attrs: inlinehint mustprogress uwtable
define linkonce_odr noundef ptr @_ZSt14__copy_move_a2ILb0EPKyPyET1_T0_S4_S3_(ptr noundef %0, ptr noundef %1, ptr noundef %2) #6 comdat {
  %4 = alloca ptr, align 8
  %5 = alloca ptr, align 8
  %6 = alloca ptr, align 8
  store ptr %0, ptr %4, align 8, !tbaa !46
  store ptr %1, ptr %5, align 8, !tbaa !46
  store ptr %2, ptr %6, align 8, !tbaa !46
  %7 = load ptr, ptr %4, align 8, !tbaa !46
  %8 = load ptr, ptr %5, align 8, !tbaa !46
  %9 = load ptr, ptr %6, align 8, !tbaa !46
  %10 = call noundef ptr @_ZNSt11__copy_moveILb0ELb1ESt26random_access_iterator_tagE8__copy_mIyEEPT_PKS3_S6_S4_(ptr noundef %7, ptr noundef %8, ptr noundef %9)
  ret ptr %10
}

; Function Attrs: mustprogress nounwind uwtable
define linkonce_odr hidden noundef i64 @_ZNKSt6vectorIN6casadi2MXESaIS1_EE4sizeEv(ptr noundef nonnull align 8 dereferenceable(24) %0) #7 comdat align 2 {
  %2 = alloca ptr, align 8
  store ptr %0, ptr %2, align 8, !tbaa !57
  %3 = load ptr, ptr %2, align 8
  %4 = getelementptr inbounds nuw %"struct.std::_Vector_base", ptr %3, i32 0, i32 0
  %5 = getelementptr inbounds nuw %"struct.std::_Vector_base<casadi::MX, std::allocator<casadi::MX>>::_Vector_impl_data", ptr %4, i32 0, i32 1
  %6 = load ptr, ptr %5, align 8, !tbaa !154
  %7 = getelementptr inbounds nuw %"struct.std::_Vector_base", ptr %3, i32 0, i32 0
  %8 = getelementptr inbounds nuw %"struct.std::_Vector_base<casadi::MX, std::allocator<casadi::MX>>::_Vector_impl_data", ptr %7, i32 0, i32 0
  %9 = load ptr, ptr %8, align 8, !tbaa !59
  %10 = ptrtoint ptr %6 to i64
  %11 = ptrtoint ptr %9 to i64
  %12 = sub i64 %10, %11
  %13 = sdiv exact i64 %12, 8
  ret i64 %13
}

; Function Attrs: inlinehint mustprogress nounwind uwtable
define linkonce_odr noundef ptr @_ZSt12__niter_wrapIPyET_RKS1_S1_(ptr noundef nonnull align 8 dereferenceable(8) %0, ptr noundef %1) #8 comdat {
  %3 = alloca ptr, align 8
  %4 = alloca ptr, align 8
  store ptr %0, ptr %3, align 8, !tbaa !60
  store ptr %1, ptr %4, align 8, !tbaa !46
  %5 = load ptr, ptr %4, align 8, !tbaa !46
  ret ptr %5
}

; Function Attrs: inlinehint mustprogress uwtable
define linkonce_odr noundef ptr @_ZSt14__copy_move_a1ILb0EPKyPyET1_T0_S4_S3_(ptr noundef %0, ptr noundef %1, ptr noundef %2) #6 comdat {
  %4 = alloca ptr, align 8
  %5 = alloca ptr, align 8
  %6 = alloca ptr, align 8
  store ptr %0, ptr %4, align 8, !tbaa !46
  store ptr %1, ptr %5, align 8, !tbaa !46
  store ptr %2, ptr %6, align 8, !tbaa !46
  %7 = load ptr, ptr %4, align 8, !tbaa !46
  %8 = load ptr, ptr %5, align 8, !tbaa !46
  %9 = load ptr, ptr %6, align 8, !tbaa !46
  %10 = call noundef ptr @_ZSt14__copy_move_a2ILb0EPKyPyET1_T0_S4_S3_(ptr noundef %7, ptr noundef %8, ptr noundef %9)
  ret ptr %10
}

; Function Attrs: inlinehint mustprogress nounwind uwtable
define linkonce_odr noundef ptr @_ZSt12__niter_baseIPyET_S1_(ptr noundef %0) #8 comdat {
  %2 = alloca ptr, align 8
  store ptr %0, ptr %2, align 8, !tbaa !46
  %3 = load ptr, ptr %2, align 8, !tbaa !46
  ret ptr %3
}

; Function Attrs: inlinehint mustprogress nounwind uwtable
define linkonce_odr noundef ptr @_ZSt12__niter_baseIPKyET_S2_(ptr noundef %0) #8 comdat {
  %2 = alloca ptr, align 8
  store ptr %0, ptr %2, align 8, !tbaa !46
  %3 = load ptr, ptr %2, align 8, !tbaa !46
  ret ptr %3
}

; Function Attrs: inlinehint mustprogress nounwind uwtable
define linkonce_odr hidden noundef nonnull align 8 dereferenceable(8) ptr @_ZNK6casadi17SparsityInterfaceINS_2MXEE4selfEv(ptr noundef nonnull align 1 dereferenceable(1) %0) #8 comdat align 2 {
  %2 = alloca ptr, align 8
  store ptr %0, ptr %2, align 8, !tbaa !259
  %3 = load ptr, ptr %2, align 8
  ret ptr %3
}

; Function Attrs: mustprogress nounwind uwtable
define linkonce_odr hidden noundef nonnull align 8 dereferenceable(8) ptr @_ZNKSt6vectorIN6casadi2MXESaIS1_EEixEm(ptr noundef nonnull align 8 dereferenceable(24) %0, i64 noundef %1) #7 comdat align 2 {
  %3 = alloca ptr, align 8
  %4 = alloca i64, align 8
  store ptr %0, ptr %3, align 8, !tbaa !57
  store i64 %1, ptr %4, align 8, !tbaa !42
  %5 = load ptr, ptr %3, align 8
  %6 = getelementptr inbounds nuw %"struct.std::_Vector_base", ptr %5, i32 0, i32 0
  %7 = getelementptr inbounds nuw %"struct.std::_Vector_base<casadi::MX, std::allocator<casadi::MX>>::_Vector_impl_data", ptr %6, i32 0, i32 0
  %8 = load ptr, ptr %7, align 8, !tbaa !59
  %9 = load i64, ptr %4, align 8, !tbaa !42
  %10 = getelementptr inbounds nuw %"class.casadi::MX", ptr %8, i64 %9
  ret ptr %10
}

; Function Attrs: mustprogress uwtable
define linkonce_odr hidden void @_ZNKSt6vectorIN6casadi2MXESaIS1_EE14_M_range_checkEm(ptr noundef nonnull align 8 dereferenceable(24) %0, i64 noundef %1) #4 comdat align 2 {
  %3 = alloca ptr, align 8
  %4 = alloca i64, align 8
  store ptr %0, ptr %3, align 8, !tbaa !57
  store i64 %1, ptr %4, align 8, !tbaa !42
  %5 = load ptr, ptr %3, align 8
  %6 = load i64, ptr %4, align 8, !tbaa !42
  %7 = call noundef i64 @_ZNKSt6vectorIN6casadi2MXESaIS1_EE4sizeEv(ptr noundef nonnull align 8 dereferenceable(24) %5) #3
  %8 = icmp uge i64 %6, %7
  br i1 %8, label %9, label %12

9:                                                ; preds = %2
  %10 = load i64, ptr %4, align 8, !tbaa !42
  %11 = call noundef i64 @_ZNKSt6vectorIN6casadi2MXESaIS1_EE4sizeEv(ptr noundef nonnull align 8 dereferenceable(24) %5) #3
  call void (ptr, ...) @_ZSt24__throw_out_of_range_fmtPKcz(ptr noundef @.str.29, i64 noundef %10, i64 noundef %11) #18
  unreachable

12:                                               ; preds = %2
  ret void
}

; Function Attrs: inlinehint mustprogress uwtable
define linkonce_odr noundef ptr @_ZSt13__copy_move_aILb0EPKyPyET1_T0_S4_S3_(ptr noundef %0, ptr noundef %1, ptr noundef %2) #6 comdat {
  %4 = alloca ptr, align 8
  %5 = alloca ptr, align 8
  %6 = alloca ptr, align 8
  store ptr %0, ptr %4, align 8, !tbaa !46
  store ptr %1, ptr %5, align 8, !tbaa !46
  store ptr %2, ptr %6, align 8, !tbaa !46
  %7 = load ptr, ptr %4, align 8, !tbaa !46
  %8 = call noundef ptr @_ZSt12__niter_baseIPKyET_S2_(ptr noundef %7) #3
  %9 = load ptr, ptr %5, align 8, !tbaa !46
  %10 = call noundef ptr @_ZSt12__niter_baseIPKyET_S2_(ptr noundef %9) #3
  %11 = load ptr, ptr %6, align 8, !tbaa !46
  %12 = call noundef ptr @_ZSt12__niter_baseIPyET_S1_(ptr noundef %11) #3
  %13 = call noundef ptr @_ZSt14__copy_move_a1ILb0EPKyPyET1_T0_S4_S3_(ptr noundef %8, ptr noundef %10, ptr noundef %12)
  %14 = call noundef ptr @_ZSt12__niter_wrapIPyET_RKS1_S1_(ptr noundef nonnull align 8 dereferenceable(8) %6, ptr noundef %13)
  ret ptr %14
}

; Function Attrs: inlinehint mustprogress nounwind uwtable
define linkonce_odr noundef ptr @_ZSt12__miter_baseIPKyET_S2_(ptr noundef %0) #8 comdat {
  %2 = alloca ptr, align 8
  store ptr %0, ptr %2, align 8, !tbaa !46
  %3 = load ptr, ptr %2, align 8, !tbaa !46
  ret ptr %3
}

; Function Attrs: mustprogress uwtable
define linkonce_odr hidden noundef nonnull align 8 dereferenceable(8) ptr @_ZNK6casadi13GenericMatrixINS_2MXEE8sparsityEv(ptr noundef nonnull align 1 dereferenceable(1) %0) #4 comdat align 2 {
  %2 = alloca ptr, align 8
  store ptr %0, ptr %2, align 8, !tbaa !68
  %3 = load ptr, ptr %2, align 8
  %4 = call noundef nonnull align 8 dereferenceable(8) ptr @_ZNK6casadi17SparsityInterfaceINS_2MXEE4selfEv(ptr noundef nonnull align 1 dereferenceable(1) %3)
  %5 = call noundef nonnull align 8 dereferenceable(8) ptr @_ZNK6casadi2MX8sparsityEv(ptr noundef nonnull align 8 dereferenceable(8) %4)
  ret ptr %5
}

; Function Attrs: mustprogress uwtable
define linkonce_odr hidden noundef nonnull align 8 dereferenceable(8) ptr @_ZNKSt6vectorIN6casadi2MXESaIS1_EE2atEm(ptr noundef nonnull align 8 dereferenceable(24) %0, i64 noundef %1) #4 comdat align 2 {
  %3 = alloca ptr, align 8
  %4 = alloca i64, align 8
  store ptr %0, ptr %3, align 8, !tbaa !57
  store i64 %1, ptr %4, align 8, !tbaa !42
  %5 = load ptr, ptr %3, align 8
  %6 = load i64, ptr %4, align 8, !tbaa !42
  call void @_ZNKSt6vectorIN6casadi2MXESaIS1_EE14_M_range_checkEm(ptr noundef nonnull align 8 dereferenceable(24) %5, i64 noundef %6)
  %7 = load i64, ptr %4, align 8, !tbaa !42
  %8 = call noundef nonnull align 8 dereferenceable(8) ptr @_ZNKSt6vectorIN6casadi2MXESaIS1_EEixEm(ptr noundef nonnull align 8 dereferenceable(24) %5, i64 noundef %7) #3
  ret ptr %8
}

; Function Attrs: inlinehint mustprogress uwtable
define linkonce_odr noundef ptr @_ZSt4copyIPKyPyET0_T_S4_S3_(ptr noundef %0, ptr noundef %1, ptr noundef %2) #6 comdat {
  %4 = alloca ptr, align 8
  %5 = alloca ptr, align 8
  %6 = alloca ptr, align 8
  store ptr %0, ptr %4, align 8, !tbaa !46
  store ptr %1, ptr %5, align 8, !tbaa !46
  store ptr %2, ptr %6, align 8, !tbaa !46
  %7 = load ptr, ptr %4, align 8, !tbaa !46
  %8 = call noundef ptr @_ZSt12__miter_baseIPKyET_S2_(ptr noundef %7)
  %9 = load ptr, ptr %5, align 8, !tbaa !46
  %10 = call noundef ptr @_ZSt12__miter_baseIPKyET_S2_(ptr noundef %9)
  %11 = load ptr, ptr %6, align 8, !tbaa !46
  %12 = call noundef ptr @_ZSt13__copy_move_aILb0EPKyPyET1_T0_S4_S3_(ptr noundef %8, ptr noundef %10, ptr noundef %11)
  ret ptr %12
}

; Function Attrs: mustprogress uwtable
define linkonce_odr hidden noundef i64 @_ZNK6casadi13GenericMatrixINS_2MXEE3nnzEv(ptr noundef nonnull align 1 dereferenceable(1) %0) #4 comdat align 2 {
  %2 = alloca ptr, align 8
  store ptr %0, ptr %2, align 8, !tbaa !68
  %3 = load ptr, ptr %2, align 8
  %4 = call noundef nonnull align 8 dereferenceable(8) ptr @_ZNK6casadi13GenericMatrixINS_2MXEE8sparsityEv(ptr noundef nonnull align 1 dereferenceable(1) %3)
  %5 = call noundef i64 @_ZNK6casadi8Sparsity3nnzEv(ptr noundef nonnull align 8 dereferenceable(8) %4)
  ret i64 %5
}

; Function Attrs: mustprogress uwtable
define linkonce_odr hidden noundef nonnull align 8 dereferenceable(8) ptr @_ZNK6casadi6MXNode3depEx(ptr noundef nonnull align 8 dereferenceable(64) %0, i64 noundef %1) #4 comdat align 2 {
  %3 = alloca ptr, align 8
  %4 = alloca i64, align 8
  store ptr %0, ptr %3, align 8, !tbaa !66
  store i64 %1, ptr %4, align 8, !tbaa !10
  %5 = load ptr, ptr %3, align 8
  %6 = getelementptr inbounds nuw %"class.casadi::MXNode", ptr %5, i32 0, i32 2
  %7 = load i64, ptr %4, align 8, !tbaa !10
  %8 = call noundef nonnull align 8 dereferenceable(8) ptr @_ZNKSt6vectorIN6casadi2MXESaIS1_EE2atEm(ptr noundef nonnull align 8 dereferenceable(24) %6, i64 noundef %7)
  ret ptr %8
}

; Function Attrs: mustprogress uwtable
define linkonce_odr noundef i32 @_ZNK6casadi10HorzRepmat8eval_genIyEEiPPKT_PPS2_PxS6_(ptr noundef nonnull align 8 dereferenceable(72) %0, ptr noundef %1, ptr noundef %2, ptr noundef %3, ptr noundef %4) #4 comdat align 2 {
  %6 = alloca ptr, align 8
  %7 = alloca ptr, align 8
  %8 = alloca ptr, align 8
  %9 = alloca ptr, align 8
  %10 = alloca ptr, align 8
  %11 = alloca i64, align 8
  %12 = alloca i64, align 8
  store ptr %0, ptr %6, align 8, !tbaa !3
  store ptr %1, ptr %7, align 8, !tbaa !60
  store ptr %2, ptr %8, align 8, !tbaa !60
  store ptr %3, ptr %9, align 8, !tbaa !46
  store ptr %4, ptr %10, align 8, !tbaa !46
  %13 = load ptr, ptr %6, align 8
  call void @llvm.lifetime.start.p0(i64 8, ptr %11) #3
  %14 = call noundef nonnull align 8 dereferenceable(8) ptr @_ZNK6casadi6MXNode3depEx(ptr noundef nonnull align 8 dereferenceable(64) %13, i64 noundef 0)
  %15 = call noundef i64 @_ZNK6casadi13GenericMatrixINS_2MXEE3nnzEv(ptr noundef nonnull align 1 dereferenceable(1) %14)
  store i64 %15, ptr %11, align 8, !tbaa !10
  call void @llvm.lifetime.start.p0(i64 8, ptr %12) #3
  store i64 0, ptr %12, align 8, !tbaa !10
  br label %16

16:                                               ; preds = %39, %5
  %17 = load i64, ptr %12, align 8, !tbaa !10
  %18 = getelementptr inbounds nuw %"class.casadi::HorzRepmat", ptr %13, i32 0, i32 1
  %19 = load i64, ptr %18, align 8, !tbaa !14
  %20 = icmp slt i64 %17, %19
  br i1 %20, label %22, label %21

21:                                               ; preds = %16
  call void @llvm.lifetime.end.p0(i64 8, ptr %12) #3
  br label %42

22:                                               ; preds = %16
  %23 = load ptr, ptr %7, align 8, !tbaa !60
  %24 = getelementptr inbounds ptr, ptr %23, i64 0
  %25 = load ptr, ptr %24, align 8, !tbaa !46
  %26 = load ptr, ptr %7, align 8, !tbaa !60
  %27 = getelementptr inbounds ptr, ptr %26, i64 0
  %28 = load ptr, ptr %27, align 8, !tbaa !46
  %29 = load i64, ptr %11, align 8, !tbaa !10
  %30 = getelementptr inbounds i64, ptr %28, i64 %29
  %31 = load ptr, ptr %8, align 8, !tbaa !60
  %32 = getelementptr inbounds ptr, ptr %31, i64 0
  %33 = load ptr, ptr %32, align 8, !tbaa !46
  %34 = load i64, ptr %12, align 8, !tbaa !10
  %35 = load i64, ptr %11, align 8, !tbaa !10
  %36 = mul nsw i64 %34, %35
  %37 = getelementptr inbounds i64, ptr %33, i64 %36
  %38 = call noundef ptr @_ZSt4copyIPKyPyET0_T_S4_S3_(ptr noundef %25, ptr noundef %30, ptr noundef %37)
  br label %39

39:                                               ; preds = %22
  %40 = load i64, ptr %12, align 8, !tbaa !10
  %41 = add nsw i64 %40, 1
  store i64 %41, ptr %12, align 8, !tbaa !10
  br label %16, !llvm.loop !62

42:                                               ; preds = %21
  call void @llvm.lifetime.end.p0(i64 8, ptr %11) #3
  ret i32 0
}

; Function Attrs: mustprogress uwtable
define noundef i32 @_ZNK6casadi10HorzRepmat10sp_forwardEPPKyPPyPxS4_(ptr noundef nonnull align 8 dereferenceable(72) %0, ptr noundef %1, ptr noundef %2, ptr noundef %3, ptr noundef %4) unnamed_addr #4 align 2 {
  %6 = alloca ptr, align 8
  %7 = alloca ptr, align 8
  %8 = alloca ptr, align 8
  %9 = alloca ptr, align 8
  %10 = alloca ptr, align 8
  store ptr %0, ptr %6, align 8, !tbaa !3
  store ptr %1, ptr %7, align 8, !tbaa !60
  store ptr %2, ptr %8, align 8, !tbaa !60
  store ptr %3, ptr %9, align 8, !tbaa !46
  store ptr %4, ptr %10, align 8, !tbaa !46
  %11 = load ptr, ptr %6, align 8
  %12 = load ptr, ptr %7, align 8, !tbaa !60
  %13 = load ptr, ptr %8, align 8, !tbaa !60
  %14 = load ptr, ptr %9, align 8, !tbaa !46
  %15 = load ptr, ptr %10, align 8, !tbaa !46
  %16 = call noundef i32 @_ZNK6casadi10HorzRepmat8eval_genIyEEiPPKT_PPS2_PxS6_(ptr noundef nonnull align 8 dereferenceable(72) %11, ptr noundef %12, ptr noundef %13, ptr noundef %14, ptr noundef %15)
  ret i32 %16
}