; Function Attrs: mustprogress uwtable
define noundef i32 @_ZNK6casadi10HorzRepmat10sp_forwardEPPKyPPyPxS4_(ptr noundef nonnull readonly align 8 captures(none) dereferenceable(72) %0, ptr noundef readonly captures(none) %1, ptr noundef readonly captures(none) %2, ptr readnone captures(none) %3, ptr readnone captures(none) %4) unnamed_addr #3 align 2 {
  %6 = getelementptr inbounds nuw i8, ptr %0, i64 32
  %7 = getelementptr inbounds nuw i8, ptr %0, i64 40
  %8 = load ptr, ptr %7, align 8, !tbaa !50
  %9 = load ptr, ptr %6, align 8, !tbaa !51
  %.not.i.i.i.not.i = icmp eq ptr %8, %9
  br i1 %.not.i.i.i.not.i, label %10, label %_ZNK6casadi6MXNode3depEx.exit.i

10:                                               ; preds = %5
  tail call void (ptr, ...) @_ZSt24__throw_out_of_range_fmtPKcz(ptr noundef nonnull @.str.29, i64 noundef 0, i64 noundef 0) #23
  unreachable

_ZNK6casadi6MXNode3depEx.exit.i:                  ; preds = %5
  %11 = tail call noundef nonnull align 8 dereferenceable(8) ptr @_ZNK6casadi2MX8sparsityEv(ptr noundef nonnull align 8 dereferenceable(8) %9)
  %12 = tail call noundef i64 @_ZNK6casadi8Sparsity3nnzEv(ptr noundef nonnull align 8 dereferenceable(8) %11)
  %13 = getelementptr inbounds nuw i8, ptr %0, i64 64
  %14 = load i64, ptr %13, align 8, !tbaa !6
  %15 = icmp sgt i64 %14, 0
  br i1 %15, label %.lr.ph.i, label %_ZNK6casadi10HorzRepmat8eval_genIyEEiPPKT_PPS2_PxS6_.exit

.lr.ph.i:                                         ; preds = %_ZNK6casadi6MXNode3depEx.exit.i
  %.not.i.i.i.i.i.i = icmp eq i64 %12, 0
  %.idx.i = shl nsw i64 %12, 3
  br i1 %.not.i.i.i.i.i.i, label %_ZNK6casadi10HorzRepmat8eval_genIyEEiPPKT_PPS2_PxS6_.exit, label %_ZSt4copyIPKyPyET0_T_S4_S3_.exit.i

_ZSt4copyIPKyPyET0_T_S4_S3_.exit.i:               ; preds = %.lr.ph.i, %_ZSt4copyIPKyPyET0_T_S4_S3_.exit.i
  %.09.i = phi i64 [ %20, %_ZSt4copyIPKyPyET0_T_S4_S3_.exit.i ], [ 0, %.lr.ph.i ]
  %16 = load ptr, ptr %1, align 8, !tbaa !60
  %17 = load ptr, ptr %2, align 8, !tbaa !60
  %18 = mul nsw i64 %.09.i, %12
  %19 = getelementptr inbounds i64, ptr %17, i64 %18
  tail call void @llvm.memmove.p0.p0.i64(ptr align 8 %19, ptr align 8 %16, i64 %.idx.i, i1 false)
  %20 = add nuw nsw i64 %.09.i, 1
  %21 = load i64, ptr %13, align 8, !tbaa !6
  %22 = icmp slt i64 %20, %21
  br i1 %22, label %_ZSt4copyIPKyPyET0_T_S4_S3_.exit.i, label %_ZNK6casadi10HorzRepmat8eval_genIyEEiPPKT_PPS2_PxS6_.exit, !llvm.loop !62

_ZNK6casadi10HorzRepmat8eval_genIyEEiPPKT_PPS2_PxS6_.exit: ; preds = %_ZSt4copyIPKyPyET0_T_S4_S3_.exit.i, %_ZNK6casadi6MXNode3depEx.exit.i, %.lr.ph.i
  ret i32 0
}